	.file	"testvectoraccess.cpp"
	.text
.Ltext0:
	.cfi_sections	.debug_frame
	.p2align 4,,15
	.def	__tcf_0;	.scl	3;	.type	32;	.endef
	.seh_proc	__tcf_0
__tcf_0:
.LFB1830:
	.file 1 "e:/downloads/mingw64/include/c++/4.8.0/iostream"
	.loc 1 74 0
	.cfi_startproc
	.seh_endprologue
	.loc 1 74 0
	leaq	_ZStL8__ioinit(%rip), %rcx
	jmp	_ZNSt8ios_base4InitD1Ev
.LVL0:
	.cfi_endproc
.LFE1830:
	.seh_endproc
	.def	__main;	.scl	2;	.type	32;	.endef
	.section	.text.startup,"x"
	.p2align 4,,15
	.globl	main
	.def	main;	.scl	2;	.type	32;	.endef
	.seh_proc	main
main:
.LFB1614:
	.file 2 "testvectoraccess.cpp"
	.loc 2 14 0
	.cfi_startproc
	.cfi_personality 0x9b,.LDFCM0
	.cfi_lsda 0x1b,.LLSDA1614
	pushq	%rdi
	.seh_pushreg	%rdi
	.cfi_def_cfa_offset 16
	.cfi_offset 5, -16
	pushq	%rsi
	.seh_pushreg	%rsi
	.cfi_def_cfa_offset 24
	.cfi_offset 4, -24
	pushq	%rbx
	.seh_pushreg	%rbx
	.cfi_def_cfa_offset 32
	.cfi_offset 3, -32
	subq	$32, %rsp
	.seh_stackalloc	32
	.cfi_def_cfa_offset 64
	.seh_endprologue
	.loc 2 14 0
	call	__main
.LVL1:
.LBB291:
.LBB292:
.LBB293:
.LBB294:
.LBB295:
.LBB296:
.LBB297:
	.file 3 "e:/downloads/mingw64/include/c++/4.8.0/ext/new_allocator.h"
	.loc 3 104 0
	movl	$40, %ecx
.LEHB0:
	call	_Znwy
.LEHE0:
.LVL2:
	leaq	40(%rax), %r8
	movq	%rax, %rdi
.LVL3:
	movq	%rax, %rdx
.LVL4:
	.p2align 4,,10
.L4:
.LBE297:
.LBE296:
.LBE295:
.LBE294:
.LBE293:
.LBB298:
.LBB299:
.LBB300:
.LBB301:
.LBB302:
.LBB303:
.LBB304:
.LBB305:
.LBB306:
	.file 4 "e:/downloads/mingw64/include/c++/4.8.0/bits/stl_algobase.h"
	.loc 4 751 0
	movq	$0, (%rdx)
.LVL5:
	addq	$8, %rdx
.LVL6:
	.loc 4 749 0
	cmpq	%r8, %rdx
	jne	.L4
	movq	%rdi, %rsi
	movl	$10, %ebx
.LVL7:
	.p2align 4,,10
.L6:
.LBE306:
.LBE305:
.LBE304:
.LBE303:
.LBE302:
.LBE301:
.LBE300:
.LBE299:
.LBE298:
.LBE292:
.LBB307:
	.loc 2 18 0
	movl	$4, %ecx
.LEHB1:
	call	_Znwy
.LEHE1:
.LVL8:
.LBB308:
.LBB309:
	.loc 2 6 0
	movl	%ebx, (%rax)
	addl	$1, %ebx
.LVL9:
.LBE309:
.LBE308:
	.loc 2 18 0
	movq	%rax, (%rsi)
.LVL10:
	addq	$8, %rsi
.LVL11:
	.loc 2 17 0
	cmpl	$15, %ebx
	jne	.L6
.LVL12:
.LBE307:
.LBB310:
.LBB311:
	.loc 2 7 0
	movq	24(%rdi), %rax
.LVL13:
.LBE311:
.LBE310:
	.loc 2 20 0
	leaq	_ZSt4cout(%rip), %rcx
	movl	(%rax), %edx
.LEHB2:
	call	_ZNSolsEi
.LVL14:
.LBB312:
.LBB313:
	.file 5 "e:/downloads/mingw64/include/c++/4.8.0/ostream"
	.loc 5 113 0
	movq	%rax, %rcx
	call	_ZSt4endlIcSt11char_traitsIcEERSt13basic_ostreamIT_T0_ES6_
.LEHE2:
.LVL15:
.LBE313:
.LBE312:
.LBB314:
.LBB315:
.LBB316:
.LBB317:
.LBB318:
	.loc 3 110 0
	movq	%rdi, %rcx
	call	_ZdlPv
.LVL16:
.LBE318:
.LBE317:
.LBE316:
.LBE315:
.LBE314:
.LBE291:
	.loc 2 22 0
	xorl	%eax, %eax
	addq	$32, %rsp
	.cfi_remember_state
	.cfi_def_cfa_offset 32
	popq	%rbx
	.cfi_restore 3
	.cfi_def_cfa_offset 24
.LVL17:
	popq	%rsi
	.cfi_restore 4
	.cfi_def_cfa_offset 16
.LVL18:
	popq	%rdi
	.cfi_restore 5
	.cfi_def_cfa_offset 8
.LVL19:
	ret
.LVL20:
.L10:
	.cfi_restore_state
.LBB325:
.LBB319:
.LBB320:
.LBB321:
.LBB322:
	.file 6 "e:/downloads/mingw64/include/c++/4.8.0/bits/stl_vector.h"
	.loc 6 173 0
	testq	%rdi, %rdi
	movq	%rax, %rbx
.LVL21:
	je	.L8
.LVL22:
.L9:
.LBB323:
.LBB324:
	.loc 3 110 0
	movq	%rdi, %rcx
	call	_ZdlPv
.LVL23:
.L8:
	movq	%rbx, %rcx
.LEHB3:
	call	_Unwind_Resume
.LEHE3:
.LVL24:
.L11:
	movq	%rax, %rbx
.LVL25:
	jmp	.L9
.LBE324:
.LBE323:
.LBE322:
.LBE321:
.LBE320:
.LBE319:
.LBE325:
	.cfi_endproc
.LFE1614:
	.def	__gxx_personality_seh0;	.scl	2;	.type	32;	.endef
	.seh_handler	__gxx_personality_seh0, @unwind, @except
	.seh_handlerdata
.LLSDA1614:
	.byte	0xff
	.byte	0xff
	.byte	0x1
	.uleb128 .LLSDACSE1614-.LLSDACSB1614
.LLSDACSB1614:
	.uleb128 .LEHB0-.LFB1614
	.uleb128 .LEHE0-.LEHB0
	.uleb128 0
	.uleb128 0
	.uleb128 .LEHB1-.LFB1614
	.uleb128 .LEHE1-.LEHB1
	.uleb128 .L10-.LFB1614
	.uleb128 0
	.uleb128 .LEHB2-.LFB1614
	.uleb128 .LEHE2-.LEHB2
	.uleb128 .L11-.LFB1614
	.uleb128 0
	.uleb128 .LEHB3-.LFB1614
	.uleb128 .LEHE3-.LEHB3
	.uleb128 0
	.uleb128 0
.LLSDACSE1614:
	.section	.text.startup,"x"
	.seh_endproc
	.p2align 4,,15
	.def	_GLOBAL__sub_I_main;	.scl	3;	.type	32;	.endef
	.seh_proc	_GLOBAL__sub_I_main
_GLOBAL__sub_I_main:
.LFB1831:
	.loc 2 22 0
	.cfi_startproc
	subq	$40, %rsp
	.seh_stackalloc	40
	.cfi_def_cfa_offset 48
	.seh_endprologue
.LVL26:
.LBB328:
.LBB329:
	.loc 1 74 0
	leaq	_ZStL8__ioinit(%rip), %rcx
	call	_ZNSt8ios_base4InitC1Ev
.LVL27:
	leaq	__tcf_0(%rip), %rcx
.LBE329:
.LBE328:
	.loc 2 22 0
	addq	$40, %rsp
	.cfi_def_cfa_offset 8
.LBB331:
.LBB330:
	.loc 1 74 0
	jmp	atexit
.LVL28:
.LBE330:
.LBE331:
	.cfi_endproc
.LFE1831:
	.seh_endproc
	.section	.ctors,"w"
	.align 8
	.quad	_GLOBAL__sub_I_main
.lcomm _ZStL8__ioinit,1,1
	.text
.Letext0:
	.file 7 "e:/downloads/mingw64/include/c++/4.8.0/type_traits"
	.file 8 "<built-in>"
	.file 9 "e:/downloads/mingw64/include/c++/4.8.0/bits/exception_ptr.h"
	.file 10 "e:/downloads/mingw64/include/c++/4.8.0/x86_64-w64-mingw32/bits/c++config.h"
	.file 11 "e:/downloads/mingw64/include/c++/4.8.0/bits/stl_construct.h"
	.file 12 "e:/downloads/mingw64/include/c++/4.8.0/bits/stl_uninitialized.h"
	.file 13 "e:/downloads/mingw64/include/c++/4.8.0/cwchar"
	.file 14 "e:/downloads/mingw64/include/c++/4.8.0/bits/char_traits.h"
	.file 15 "e:/downloads/mingw64/include/c++/4.8.0/cstdint"
	.file 16 "e:/downloads/mingw64/include/c++/4.8.0/clocale"
	.file 17 "e:/downloads/mingw64/include/c++/4.8.0/cstdlib"
	.file 18 "e:/downloads/mingw64/include/c++/4.8.0/cstdio"
	.file 19 "e:/downloads/mingw64/include/c++/4.8.0/bits/ios_base.h"
	.file 20 "e:/downloads/mingw64/include/c++/4.8.0/cwctype"
	.file 21 "e:/downloads/mingw64/include/c++/4.8.0/bits/allocator.h"
	.file 22 "e:/downloads/mingw64/include/c++/4.8.0/bits/ptr_traits.h"
	.file 23 "e:/downloads/mingw64/include/c++/4.8.0/bits/alloc_traits.h"
	.file 24 "e:/downloads/mingw64/include/c++/4.8.0/ext/alloc_traits.h"
	.file 25 "e:/downloads/mingw64/include/c++/4.8.0/bits/ostream.tcc"
	.file 26 "e:/downloads/mingw64/include/c++/4.8.0/bits/vector.tcc"
	.file 27 "e:/downloads/mingw64/include/c++/4.8.0/initializer_list"
	.file 28 "e:/downloads/mingw64/include/c++/4.8.0/bits/stl_iterator_base_types.h"
	.file 29 "e:/downloads/mingw64/include/c++/4.8.0/bits/basic_ios.h"
	.file 30 "e:/downloads/mingw64/include/c++/4.8.0/iosfwd"
	.file 31 "e:/downloads/mingw64/include/c++/4.8.0/bits/cpp_type_traits.h"
	.file 32 "e:/downloads/mingw64/include/c++/4.8.0/ext/numeric_traits.h"
	.file 33 "e:/downloads/mingw64/include/c++/4.8.0/bits/stl_iterator.h"
	.file 34 "e:/downloads/mingw64/include/c++/4.8.0/ext/type_traits.h"
	.file 35 "e:/downloads/mingw64/include/c++/4.8.0/debug/debug.h"
	.file 36 "e:/downloads/mingw64/x86_64-w64-mingw32/include/_mingw.h"
	.file 37 "e:/downloads/mingw64/x86_64-w64-mingw32/include/locale.h"
	.file 38 "e:/downloads/mingw64/x86_64-w64-mingw32/include/wchar.h"
	.file 39 "e:/downloads/mingw64/x86_64-w64-mingw32/include/swprintf.inl"
	.file 40 "e:/downloads/mingw64/x86_64-w64-mingw32/include/stdint.h"
	.file 41 "e:/downloads/mingw64/x86_64-w64-mingw32/include/stdio.h"
	.file 42 "e:/downloads/mingw64/include/c++/4.8.0/x86_64-w64-mingw32/bits/atomic_word.h"
	.file 43 "e:/downloads/mingw64/x86_64-w64-mingw32/include/stdlib.h"
	.file 44 "e:/downloads/mingw64/x86_64-w64-mingw32/include/wctype.h"
	.file 45 "e:/downloads/mingw64/include/c++/4.8.0/bits/stl_pair.h"
	.file 46 "e:/downloads/mingw64/include/c++/4.8.0/x86_64-w64-mingw32/bits/gthr-default.h"
	.file 47 "e:/downloads/mingw64/include/c++/4.8.0/new"
	.data
	.align 8
.LDFCM0:
	.quad	__gxx_personality_seh0
	.ident	"GCC: (rubenvb-4.8.0) 4.8.0"
	.def	_ZNSt8ios_base4InitD1Ev;	.scl	2;	.type	32;	.endef
	.def	_Znwy;	.scl	2;	.type	32;	.endef
	.def	_ZNSolsEi;	.scl	2;	.type	32;	.endef
	.def	_ZSt4endlIcSt11char_traitsIcEERSt13basic_ostreamIT_T0_ES6_;	.scl	2;	.type	32;	.endef
	.def	_ZdlPv;	.scl	2;	.type	32;	.endef
	.def	_Unwind_Resume;	.scl	2;	.type	32;	.endef
	.def	_ZNSt8ios_base4InitC1Ev;	.scl	2;	.type	32;	.endef
	.def	atexit;	.scl	2;	.type	32;	.endef
